; Function Attrs: nounwind uwtable
define internal noundef i32 @pdo_sqlite_stmt_dtor(ptr noundef readonly captures(none) %0) #0 {
  %2 = getelementptr inbounds nuw i8, ptr %0, i64 8
  %3 = load ptr, ptr %2, align 8, !tbaa !4
  %4 = getelementptr inbounds nuw i8, ptr %3, i64 8
  %5 = load ptr, ptr %4, align 8, !tbaa !23
  %.not = icmp eq ptr %5, null
  br i1 %.not, label %8, label %6

6:                                                ; preds = %1
  %7 = tail call i32 @sqlite3_finalize(ptr noundef nonnull %5) #6
  store ptr null, ptr %4, align 8, !tbaa !23
  br label %8

8:                                                ; preds = %6, %1
  tail call void @_efree(ptr noundef nonnull %3) #6
  ret i32 1
}